Certificate:
    Data:
        Version: 3 (0x2)
        Serial Number: 5 (0x5)
    Signature Algorithm: sha256WithRSAEncryption
        Issuer: C=ES, ST=Coruna, L=Santiago de Compostela, O=SERGAS, OU=Sistemas, CN=ca_DESARROLLO
        Validity
            Not Before: Sep 23 12:58:18 2016 GMT
            Not After : Sep 11 12:58:18 2066 GMT
        Subject: C=ES, ST=Coruna, L=Santiago de Compostela, O=SERGAS, OU=Sistemas, CN=apache_DESARROLLO
        Subject Public Key Info:
            Public Key Algorithm: rsaEncryption
                Public-Key: (2048 bit)
                Modulus:
                    00:c7:36:73:2e:6b:0d:28:75:16:ab:6e:54:c6:69:
                    02:a9:12:91:69:28:51:62:ab:d6:78:54:ef:a1:2e:
                    88:49:60:f8:27:92:d4:9b:07:a0:e0:99:47:49:01:
                    5c:0e:be:33:83:3e:65:9b:e3:06:5f:4a:34:e0:b9:
                    68:8c:7a:79:03:d7:93:02:9b:48:f0:01:f1:42:90:
                    8e:2b:de:83:cf:11:75:5e:fc:8b:58:29:ea:29:26:
                    3f:ee:29:46:0f:c7:58:85:1b:32:e9:f9:c7:de:74:
                    7c:5a:29:1d:d8:a9:7e:9c:d9:5e:da:a8:0a:ac:82:
                    a1:0a:15:97:72:4b:ca:11:cb:44:cd:52:35:58:ce:
                    21:c3:85:01:fc:f7:60:83:02:49:dd:20:95:f9:c6:
                    53:b6:86:d7:62:23:4a:ec:21:9d:ae:2d:db:59:6d:
                    a1:c0:c7:0b:a4:aa:d0:63:e7:bd:6a:85:ad:db:ee:
                    9f:c9:0b:4b:b0:f0:de:8d:ee:05:82:c3:2f:57:da:
                    d0:4b:7b:38:fa:1c:bd:33:0a:ff:e3:89:df:66:43:
                    0f:c3:1d:33:a7:ca:3d:b9:d4:95:7c:43:c1:88:33:
                    b1:e2:c9:b4:cc:50:97:6d:30:66:93:35:af:d0:dd:
                    67:85:de:8f:8e:f8:94:99:f5:3b:51:78:d4:d5:55:
                    83:29
                Exponent: 65537 (0x10001)
        X509v3 extensions:
            X509v3 Basic Constraints: 
                CA:FALSE
            Netscape Comment: 
                /usr/bin/openssl Generated Certificate
            X509v3 Subject Key Identifier: 
                5D:02:3A:2F:91:65:27:6A:6E:37:2F:B1:8C:DD:8E:B6:66:28:BA:9A
            X509v3 Authority Key Identifier: 
                keyid:F5:5C:EA:1C:90:28:1D:07:AB:BF:BF:ED:5B:79:D3:F7:49:68:92:EE

    Signature Algorithm: sha256WithRSAEncryption
         ae:81:37:b6:2f:30:e9:09:18:bb:c8:f5:86:af:00:32:71:7c:
         1a:40:1e:cf:c2:bd:0f:c9:c3:13:5d:c6:22:26:51:d3:db:3a:
         25:99:43:9a:5d:da:e6:bc:17:43:eb:95:ff:0f:9d:36:43:31:
         19:28:10:67:79:b5:ca:72:55:1c:c9:3d:5c:6b:b0:ed:d2:d5:
         26:66:c2:bb:26:74:bf:c0:5e:c5:fb:c0:3c:66:57:41:70:cb:
         99:47:a5:2b:d6:f7:8b:8e:34:e9:a6:b2:27:b0:47:f8:fa:06:
         1a:3d:37:32:f0:5d:5c:48:6b:77:92:6f:d1:6b:52:53:74:c5:
         30:c0:69:d1:0a:3a:8a:17:e1:88:f4:d0:3b:68:27:02:3e:ce:
         a5:a8:b1:bb:74:09:c9:83:58:db:0a:cf:5c:f8:76:80:38:f9:
         19:12:49:e9:b4:ef:d6:1e:0f:29:e9:56:f4:30:65:26:27:e2:
         ad:b1:b5:4a:18:dd:8f:80:73:0f:0f:fc:10:77:84:7c:0e:a8:
         c2:53:62:46:94:b9:38:0f:92:a3:40:f5:a7:98:54:f8:31:fc:
         6f:6b:6f:6d:60:d9:f1:4b:fa:31:67:5a:f2:de:4d:fa:dc:c1:
         bb:af:53:15:7a:84:8c:3d:6e:48:c0:c0:70:e1:94:5e:5e:a5:
         22:ab:57:45
-----BEGIN CERTIFICATE-----
MIID/TCCAuWgAwIBAgIBBTANBgkqhkiG9w0BAQsFADB7MQswCQYDVQQGEwJFUzEP
MA0GA1UECBMGQ29ydW5hMR8wHQYDVQQHExZTYW50aWFnbyBkZSBDb21wb3N0ZWxh
MQ8wDQYDVQQKEwZTRVJHQVMxETAPBgNVBAsTCFNpc3RlbWFzMRYwFAYDVQQDFA1j
YV9ERVNBUlJPTExPMCAXDTE2MDkyMzEyNTgxOFoYDzIwNjYwOTExMTI1ODE4WjB/
MQswCQYDVQQGEwJFUzEPMA0GA1UECBMGQ29ydW5hMR8wHQYDVQQHExZTYW50aWFn
byBkZSBDb21wb3N0ZWxhMQ8wDQYDVQQKEwZTRVJHQVMxETAPBgNVBAsTCFNpc3Rl
bWFzMRowGAYDVQQDFBFhcGFjaGVfREVTQVJST0xMTzCCASIwDQYJKoZIhvcNAQEB
BQADggEPADCCAQoCggEBAMc2cy5rDSh1FqtuVMZpAqkSkWkoUWKr1nhU76EuiElg
+CeS1JsHoOCZR0kBXA6+M4M+ZZvjBl9KNOC5aIx6eQPXkwKbSPAB8UKQjiveg88R
dV78i1gp6ikmP+4pRg/HWIUbMun5x950fFopHdipfpzZXtqoCqyCoQoVl3JLyhHL
RM1SNVjOIcOFAfz3YIMCSd0glfnGU7aG12IjSuwhna4t21ltocDHC6Sq0GPnvWqF
rdvun8kLS7Dw3o3uBYLDL1fa0Et7OPocvTMK/+OJ32ZDD8MdM6fKPbnUlXxDwYgz
seLJtMxQl20wZpM1r9DdZ4Xej474lJn1O1F41NVVgykCAwEAAaOBhTCBgjAJBgNV
HRMEAjAAMDUGCWCGSAGG+EIBDQQoFiYvdXNyL2Jpbi9vcGVuc3NsIEdlbmVyYXRl
ZCBDZXJ0aWZpY2F0ZTAdBgNVHQ4EFgQUXQI6L5FlJ2puNy+xjN2OtmYoupowHwYD
VR0jBBgwFoAU9VzqHJAoHQerv7/tW3nT90loku4wDQYJKoZIhvcNAQELBQADggEB
AK6BN7YvMOkJGLvI9YavADJxfBpAHs/CvQ/JwxNdxiImUdPbOiWZQ5pd2ua8F0Pr
lf8PnTZDMRkoEGd5tcpyVRzJPVxrsO3S1SZmwrsmdL/AXsX7wDxmV0Fwy5lHpSvW
94uONOmmsiewR/j6Bho9NzLwXVxIa3eSb9FrUlN0xTDAadEKOooX4Yj00DtoJwI+
zqWosbt0CcmDWNsKz1z4doA4+RkSSem079YeDynpVvQwZSYn4q2xtUoY3Y+Acw8P
/BB3hHwOqMJTYkaUuTgPkqNA9aeYVPgx/G9rb21g2fFL+jFnWvLeTfrcwbuvUxV6
hIw9bkjAwHDhlF5epSKrV0U=
-----END CERTIFICATE-----
